target datalayout = "e-m:e-p270:32:32-p271:32:32-p272:64:64-i64:64-i128:128-f80:128-n8:16:32:64-S128"
target triple = "x86_64-pc-linux-gnu"

%struct.VAAPIDevicePriv = type { ptr, i32 }
%struct.AVHWDeviceContext = type { ptr, i32, ptr, ptr, ptr }
%struct.AVVAAPIDeviceContext = type { ptr, i32 }

; Function Attrs: nounwind uwtable
define internal void @vaapi_device_free(ptr noundef %0) #0 {
  %2 = alloca ptr, align 8
  %3 = alloca ptr, align 8
  %4 = alloca ptr, align 8
  store ptr %0, ptr %2, align 8, !tbaa !4
  call void @llvm.lifetime.start.p0(i64 8, ptr %3) #10
  %5 = load ptr, ptr %2, align 8, !tbaa !4
  %6 = getelementptr inbounds nuw %struct.AVHWDeviceContext, ptr %5, i32 0, i32 2
  %7 = load ptr, ptr %6, align 8, !tbaa !43
  store ptr %7, ptr %3, align 8, !tbaa !52
  call void @llvm.lifetime.start.p0(i64 8, ptr %4) #10
  %8 = load ptr, ptr %2, align 8, !tbaa !4
  %9 = getelementptr inbounds nuw %struct.AVHWDeviceContext, ptr %8, i32 0, i32 4
  %10 = load ptr, ptr %9, align 8, !tbaa !21
  store ptr %10, ptr %4, align 8, !tbaa !16
  %11 = load ptr, ptr %3, align 8, !tbaa !52
  %12 = getelementptr inbounds nuw %struct.AVVAAPIDeviceContext, ptr %11, i32 0, i32 0
  %13 = load ptr, ptr %12, align 8, !tbaa !56
  %14 = icmp ne ptr %13, null
  br i1 %14, label %15, label %20

15:                                               ; preds = %1
  %16 = load ptr, ptr %3, align 8, !tbaa !52
  %17 = getelementptr inbounds nuw %struct.AVVAAPIDeviceContext, ptr %16, i32 0, i32 0
  %18 = load ptr, ptr %17, align 8, !tbaa !56
  %19 = call i32 @vaTerminate(ptr noundef %18)
  br label %20

20:                                               ; preds = %15, %1
  %21 = load ptr, ptr %4, align 8, !tbaa !16
  %22 = getelementptr inbounds nuw %struct.VAAPIDevicePriv, ptr %21, i32 0, i32 0
  %23 = load ptr, ptr %22, align 8, !tbaa !41
  %24 = icmp ne ptr %23, null
  br i1 %24, label %25, label %30

25:                                               ; preds = %20
  %26 = load ptr, ptr %4, align 8, !tbaa !16
  %27 = getelementptr inbounds nuw %struct.VAAPIDevicePriv, ptr %26, i32 0, i32 0
  %28 = load ptr, ptr %27, align 8, !tbaa !41
  %29 = call i32 @XCloseDisplay(ptr noundef %28)
  br label %30

30:                                               ; preds = %25, %20
  %31 = load ptr, ptr %4, align 8, !tbaa !16
  %32 = getelementptr inbounds nuw %struct.VAAPIDevicePriv, ptr %31, i32 0, i32 1
  %33 = load i32, ptr %32, align 8, !tbaa !18
  %34 = icmp sge i32 %33, 0
  br i1 %34, label %35, label %40

35:                                               ; preds = %30
  %36 = load ptr, ptr %4, align 8, !tbaa !16
  %37 = getelementptr inbounds nuw %struct.VAAPIDevicePriv, ptr %36, i32 0, i32 1
  %38 = load i32, ptr %37, align 8, !tbaa !18
  %39 = call i32 @close(i32 noundef %38)
  br label %40

40:                                               ; preds = %35, %30
  call void @av_freep(ptr noundef %4)
  call void @llvm.lifetime.end.p0(i64 8, ptr %4) #10
  call void @llvm.lifetime.end.p0(i64 8, ptr %3) #10
  ret void
}