; Function Attrs: nounwind uwtable
define internal void @vaapi_device_free(ptr noundef readonly captures(none) %0) #0 {
  %2 = alloca ptr, align 8
  %3 = getelementptr inbounds nuw i8, ptr %0, i64 16
  %4 = load ptr, ptr %3, align 8, !tbaa !31
  call void @llvm.lifetime.start.p0(i64 8, ptr nonnull %2) #11
  %5 = getelementptr inbounds nuw i8, ptr %0, i64 32
  %6 = load ptr, ptr %5, align 8, !tbaa !11
  store ptr %6, ptr %2, align 8, !tbaa !206
  %7 = load ptr, ptr %4, align 8, !tbaa !34
  %.not = icmp eq ptr %7, null
  br i1 %.not, label %10, label %8

8:                                                ; preds = %1
  %9 = tail call i32 @vaTerminate(ptr noundef nonnull %7) #11
  br label %10

10:                                               ; preds = %8, %1
  %11 = load ptr, ptr %6, align 8, !tbaa !29
  %.not6 = icmp eq ptr %11, null
  br i1 %.not6, label %14, label %12

12:                                               ; preds = %10
  %13 = tail call i32 @XCloseDisplay(ptr noundef nonnull %11) #11
  br label %14

14:                                               ; preds = %12, %10
  %15 = getelementptr inbounds nuw i8, ptr %6, i64 8
  %16 = load i32, ptr %15, align 8, !tbaa !4
  %17 = icmp sgt i32 %16, -1
  br i1 %17, label %18, label %20

18:                                               ; preds = %14
  %19 = tail call i32 @close(i32 noundef %16) #11
  br label %20

20:                                               ; preds = %18, %14
  call void @av_freep(ptr noundef nonnull %2) #11
  call void @llvm.lifetime.end.p0(i64 8, ptr nonnull %2) #11
  ret void
}